target datalayout = "e-m:e-p270:32:32-p271:32:32-p272:64:64-i64:64-i128:128-f80:128-n8:16:32:64-S128"
target triple = "x86_64-pc-linux-gnu"

%struct.AVRational = type { i32, i32 }
%struct.AVChannelLayout = type { i32, i32, %union.anon.0, ptr }
%union.anon.0 = type { i64 }
%struct.VBLEContext = type { ptr, %struct.LLVidDSPContext, i32, ptr }
%struct.LLVidDSPContext = type { ptr, ptr, ptr, ptr, ptr }
%struct.GetBitContext = type { ptr, ptr, i32, i32, i32 }
%struct.AVFrame = type { [8 x ptr], [8 x i32], ptr, i32, i32, i32, i32, i32, %struct.AVRational, i64, i64, %struct.AVRational, i32, ptr, i32, i32, [8 x ptr], ptr, i32, ptr, i32, i32, i32, i32, i32, i32, i32, i64, ptr, i32, ptr, ptr, i64, i64, i64, i64, ptr, %struct.AVChannelLayout, i64 }

; Function Attrs: inlinehint nounwind willreturn memory(none) uwtable
define internal i32 @zero_extend(i32 noundef %0, i32 noundef %1) #5 {
  %3 = alloca i32, align 4
  %4 = alloca i32, align 4
  store i32 %0, ptr %3, align 4, !tbaa !48
  store i32 %1, ptr %4, align 4, !tbaa !48
  %5 = load i32, ptr %3, align 4, !tbaa !48
  %6 = load i32, ptr %4, align 4, !tbaa !48
  %7 = zext i32 %6 to i64
  %8 = sub i64 32, %7
  %9 = trunc i64 %8 to i32
  %10 = shl i32 %5, %9
  %11 = load i32, ptr %4, align 4, !tbaa !48
  %12 = zext i32 %11 to i64
  %13 = sub i64 32, %12
  %14 = trunc i64 %13 to i32
  %15 = lshr i32 %10, %14
  ret i32 %15
}

; Function Attrs: inlinehint nounwind uwtable
define internal i32 @get_bits(ptr noundef %0, i32 noundef %1) #4 {
  %3 = alloca ptr, align 8
  %4 = alloca i32, align 4
  %5 = alloca i32, align 4
  %6 = alloca i32, align 4
  %7 = alloca i32, align 4
  %8 = alloca i32, align 4
  store ptr %0, ptr %3, align 8, !tbaa !52
  store i32 %1, ptr %4, align 4, !tbaa !48
  call void @llvm.lifetime.start.p0(i64 4, ptr %5) #6
  call void @llvm.lifetime.start.p0(i64 4, ptr %6) #6
  %9 = load ptr, ptr %3, align 8, !tbaa !52
  %10 = getelementptr inbounds nuw %struct.GetBitContext, ptr %9, i32 0, i32 2
  %11 = load i32, ptr %10, align 8, !tbaa !59
  store i32 %11, ptr %6, align 4, !tbaa !48
  call void @llvm.lifetime.start.p0(i64 4, ptr %7) #6
  call void @llvm.lifetime.start.p0(i64 4, ptr %8) #6
  %12 = load ptr, ptr %3, align 8, !tbaa !52
  %13 = getelementptr inbounds nuw %struct.GetBitContext, ptr %12, i32 0, i32 4
  %14 = load i32, ptr %13, align 8, !tbaa !57
  store i32 %14, ptr %8, align 4, !tbaa !48
  %15 = load ptr, ptr %3, align 8, !tbaa !52
  %16 = getelementptr inbounds nuw %struct.GetBitContext, ptr %15, i32 0, i32 0
  %17 = load ptr, ptr %16, align 8, !tbaa !54
  %18 = load i32, ptr %6, align 4, !tbaa !48
  %19 = lshr i32 %18, 3
  %20 = zext i32 %19 to i64
  %21 = getelementptr inbounds nuw i8, ptr %17, i64 %20
  %22 = load i32, ptr %21, align 1, !tbaa !50
  %23 = load i32, ptr %6, align 4, !tbaa !48
  %24 = and i32 %23, 7
  %25 = lshr i32 %22, %24
  store i32 %25, ptr %7, align 4, !tbaa !48
  %26 = load i32, ptr %7, align 4, !tbaa !48
  %27 = load i32, ptr %4, align 4, !tbaa !48
  %28 = call i32 @zero_extend(i32 noundef %26, i32 noundef %27) #7
  store i32 %28, ptr %5, align 4, !tbaa !48
  %29 = load i32, ptr %8, align 4, !tbaa !48
  %30 = load i32, ptr %6, align 4, !tbaa !48
  %31 = load i32, ptr %4, align 4, !tbaa !48
  %32 = add i32 %30, %31
  %33 = icmp ugt i32 %29, %32
  br i1 %33, label %34, label %38

34:                                               ; preds = %2
  %35 = load i32, ptr %6, align 4, !tbaa !48
  %36 = load i32, ptr %4, align 4, !tbaa !48
  %37 = add i32 %35, %36
  br label %40

38:                                               ; preds = %2
  %39 = load i32, ptr %8, align 4, !tbaa !48
  br label %40

40:                                               ; preds = %38, %34
  %41 = phi i32 [ %37, %34 ], [ %39, %38 ]
  store i32 %41, ptr %6, align 4, !tbaa !48
  %42 = load i32, ptr %6, align 4, !tbaa !48
  %43 = load ptr, ptr %3, align 8, !tbaa !52
  %44 = getelementptr inbounds nuw %struct.GetBitContext, ptr %43, i32 0, i32 2
  store i32 %42, ptr %44, align 8, !tbaa !59
  %45 = load i32, ptr %5, align 4, !tbaa !48
  call void @llvm.lifetime.end.p0(i64 4, ptr %8) #6
  call void @llvm.lifetime.end.p0(i64 4, ptr %7) #6
  call void @llvm.lifetime.end.p0(i64 4, ptr %6) #6
  call void @llvm.lifetime.end.p0(i64 4, ptr %5) #6
  ret i32 %45
}

; Function Attrs: nounwind uwtable
define internal void @vble_restore_plane(ptr noundef %0, ptr noundef %1, ptr noundef %2, i32 noundef %3, i32 noundef %4, i32 noundef %5, i32 noundef %6) #1 {
  %8 = alloca ptr, align 8
  %9 = alloca ptr, align 8
  %10 = alloca ptr, align 8
  %11 = alloca i32, align 4
  %12 = alloca i32, align 4
  %13 = alloca i32, align 4
  %14 = alloca i32, align 4
  %15 = alloca ptr, align 8
  %16 = alloca ptr, align 8
  %17 = alloca i32, align 4
  %18 = alloca i32, align 4
  %19 = alloca i32, align 4
  %20 = alloca i32, align 4
  %21 = alloca i32, align 4
  %22 = alloca i32, align 4
  store ptr %0, ptr %8, align 8, !tbaa !29
  store ptr %1, ptr %9, align 8, !tbaa !40
  store ptr %2, ptr %10, align 8, !tbaa !52
  store i32 %3, ptr %11, align 4, !tbaa !48
  store i32 %4, ptr %12, align 4, !tbaa !48
  store i32 %5, ptr %13, align 4, !tbaa !48
  store i32 %6, ptr %14, align 4, !tbaa !48
  call void @llvm.lifetime.start.p0(i64 8, ptr %15) #6
  %23 = load ptr, ptr %9, align 8, !tbaa !40
  %24 = getelementptr inbounds nuw %struct.AVFrame, ptr %23, i32 0, i32 0
  %25 = load i32, ptr %11, align 4, !tbaa !48
  %26 = sext i32 %25 to i64
  %27 = getelementptr inbounds [8 x ptr], ptr %24, i64 0, i64 %26
  %28 = load ptr, ptr %27, align 8, !tbaa !47
  store ptr %28, ptr %15, align 8, !tbaa !47
  call void @llvm.lifetime.start.p0(i64 8, ptr %16) #6
  %29 = load ptr, ptr %8, align 8, !tbaa !29
  %30 = getelementptr inbounds nuw %struct.VBLEContext, ptr %29, i32 0, i32 3
  %31 = load ptr, ptr %30, align 8, !tbaa !39
  %32 = load i32, ptr %12, align 4, !tbaa !48
  %33 = sext i32 %32 to i64
  %34 = getelementptr inbounds i8, ptr %31, i64 %33
  store ptr %34, ptr %16, align 8, !tbaa !47
  call void @llvm.lifetime.start.p0(i64 4, ptr %17) #6
  %35 = load ptr, ptr %9, align 8, !tbaa !40
  %36 = getelementptr inbounds nuw %struct.AVFrame, ptr %35, i32 0, i32 1
  %37 = load i32, ptr %11, align 4, !tbaa !48
  %38 = sext i32 %37 to i64
  %39 = getelementptr inbounds [8 x i32], ptr %36, i64 0, i64 %38
  %40 = load i32, ptr %39, align 4, !tbaa !48
  store i32 %40, ptr %17, align 4, !tbaa !48
  call void @llvm.lifetime.start.p0(i64 4, ptr %18) #6
  call void @llvm.lifetime.start.p0(i64 4, ptr %19) #6
  call void @llvm.lifetime.start.p0(i64 4, ptr %20) #6
  call void @llvm.lifetime.start.p0(i64 4, ptr %21) #6
  store i32 0, ptr %18, align 4, !tbaa !48
  br label %41

41:                                               ; preds = %157, %7
  %42 = load i32, ptr %18, align 4, !tbaa !48
  %43 = load i32, ptr %14, align 4, !tbaa !48
  %44 = icmp slt i32 %42, %43
  br i1 %44, label %45, label %160

45:                                               ; preds = %41
  store i32 0, ptr %19, align 4, !tbaa !48
  br label %46

46:                                               ; preds = %87, %45
  %47 = load i32, ptr %19, align 4, !tbaa !48
  %48 = load i32, ptr %13, align 4, !tbaa !48
  %49 = icmp slt i32 %47, %48
  br i1 %49, label %50, label %90

50:                                               ; preds = %46
  %51 = load ptr, ptr %16, align 8, !tbaa !47
  %52 = load i32, ptr %19, align 4, !tbaa !48
  %53 = sext i32 %52 to i64
  %54 = getelementptr inbounds i8, ptr %51, i64 %53
  %55 = load i8, ptr %54, align 1, !tbaa !50
  %56 = icmp ne i8 %55, 0
  br i1 %56, label %57, label %86

57:                                               ; preds = %50
  call void @llvm.lifetime.start.p0(i64 4, ptr %22) #6
  %58 = load ptr, ptr %16, align 8, !tbaa !47
  %59 = load i32, ptr %19, align 4, !tbaa !48
  %60 = sext i32 %59 to i64
  %61 = getelementptr inbounds i8, ptr %58, i64 %60
  %62 = load i8, ptr %61, align 1, !tbaa !50
  %63 = zext i8 %62 to i32
  %64 = shl i32 1, %63
  %65 = load ptr, ptr %10, align 8, !tbaa !52
  %66 = load ptr, ptr %16, align 8, !tbaa !47
  %67 = load i32, ptr %19, align 4, !tbaa !48
  %68 = sext i32 %67 to i64
  %69 = getelementptr inbounds i8, ptr %66, i64 %68
  %70 = load i8, ptr %69, align 1, !tbaa !50
  %71 = zext i8 %70 to i32
  %72 = call i32 @get_bits(ptr noundef %65, i32 noundef %71)
  %73 = add i32 %64, %72
  %74 = sub i32 %73, 1
  store i32 %74, ptr %22, align 4, !tbaa !48
  %75 = load i32, ptr %22, align 4, !tbaa !48
  %76 = ashr i32 %75, 1
  %77 = load i32, ptr %22, align 4, !tbaa !48
  %78 = and i32 %77, 1
  %79 = sub nsw i32 0, %78
  %80 = xor i32 %76, %79
  %81 = trunc i32 %80 to i8
  %82 = load ptr, ptr %16, align 8, !tbaa !47
  %83 = load i32, ptr %19, align 4, !tbaa !48
  %84 = sext i32 %83 to i64
  %85 = getelementptr inbounds i8, ptr %82, i64 %84
  store i8 %81, ptr %85, align 1, !tbaa !50
  call void @llvm.lifetime.end.p0(i64 4, ptr %22) #6
  br label %86

86:                                               ; preds = %57, %50
  br label %87

87:                                               ; preds = %86
  %88 = load i32, ptr %19, align 4, !tbaa !48
  %89 = add nsw i32 %88, 1
  store i32 %89, ptr %19, align 4, !tbaa !48
  br label %46, !llvm.loop !62

90:                                               ; preds = %46
  %91 = load i32, ptr %18, align 4, !tbaa !48
  %92 = icmp ne i32 %91, 0
  br i1 %92, label %93, label %114

93:                                               ; preds = %90
  store i32 0, ptr %20, align 4, !tbaa !48
  %94 = load ptr, ptr %15, align 8, !tbaa !47
  %95 = load i32, ptr %17, align 4, !tbaa !48
  %96 = sub nsw i32 0, %95
  %97 = sext i32 %96 to i64
  %98 = getelementptr inbounds i8, ptr %94, i64 %97
  %99 = load i8, ptr %98, align 1, !tbaa !50
  %100 = zext i8 %99 to i32
  store i32 %100, ptr %21, align 4, !tbaa !48
  %101 = load ptr, ptr %8, align 8, !tbaa !29
  %102 = getelementptr inbounds nuw %struct.VBLEContext, ptr %101, i32 0, i32 1
  %103 = getelementptr inbounds nuw %struct.LLVidDSPContext, ptr %102, i32 0, i32 1
  %104 = load ptr, ptr %103, align 8, !tbaa !63
  %105 = load ptr, ptr %15, align 8, !tbaa !47
  %106 = load ptr, ptr %15, align 8, !tbaa !47
  %107 = load i32, ptr %17, align 4, !tbaa !48
  %108 = sext i32 %107 to i64
  %109 = sub i64 0, %108
  %110 = getelementptr inbounds i8, ptr %106, i64 %109
  %111 = load ptr, ptr %16, align 8, !tbaa !47
  %112 = load i32, ptr %13, align 4, !tbaa !48
  %113 = sext i32 %112 to i64
  call void %104(ptr noundef %105, ptr noundef %110, ptr noundef %111, i64 noundef %113, ptr noundef %20, ptr noundef %21)
  br label %148

114:                                              ; preds = %90
  %115 = load ptr, ptr %16, align 8, !tbaa !47
  %116 = getelementptr inbounds i8, ptr %115, i64 0
  %117 = load i8, ptr %116, align 1, !tbaa !50
  %118 = load ptr, ptr %15, align 8, !tbaa !47
  %119 = getelementptr inbounds i8, ptr %118, i64 0
  store i8 %117, ptr %119, align 1, !tbaa !50
  store i32 1, ptr %19, align 4, !tbaa !48
  br label %120

120:                                              ; preds = %144, %114
  %121 = load i32, ptr %19, align 4, !tbaa !48
  %122 = load i32, ptr %13, align 4, !tbaa !48
  %123 = icmp slt i32 %121, %122
  br i1 %123, label %124, label %147

124:                                              ; preds = %120
  %125 = load ptr, ptr %16, align 8, !tbaa !47
  %126 = load i32, ptr %19, align 4, !tbaa !48
  %127 = sext i32 %126 to i64
  %128 = getelementptr inbounds i8, ptr %125, i64 %127
  %129 = load i8, ptr %128, align 1, !tbaa !50
  %130 = zext i8 %129 to i32
  %131 = load ptr, ptr %15, align 8, !tbaa !47
  %132 = load i32, ptr %19, align 4, !tbaa !48
  %133 = sub nsw i32 %132, 1
  %134 = sext i32 %133 to i64
  %135 = getelementptr inbounds i8, ptr %131, i64 %134
  %136 = load i8, ptr %135, align 1, !tbaa !50
  %137 = zext i8 %136 to i32
  %138 = add nsw i32 %130, %137
  %139 = trunc i32 %138 to i8
  %140 = load ptr, ptr %15, align 8, !tbaa !47
  %141 = load i32, ptr %19, align 4, !tbaa !48
  %142 = sext i32 %141 to i64
  %143 = getelementptr inbounds i8, ptr %140, i64 %142
  store i8 %139, ptr %143, align 1, !tbaa !50
  br label %144

144:                                              ; preds = %124
  %145 = load i32, ptr %19, align 4, !tbaa !48
  %146 = add nsw i32 %145, 1
  store i32 %146, ptr %19, align 4, !tbaa !48
  br label %120, !llvm.loop !64

147:                                              ; preds = %120
  br label %148

148:                                              ; preds = %147, %93
  %149 = load i32, ptr %17, align 4, !tbaa !48
  %150 = load ptr, ptr %15, align 8, !tbaa !47
  %151 = sext i32 %149 to i64
  %152 = getelementptr inbounds i8, ptr %150, i64 %151
  store ptr %152, ptr %15, align 8, !tbaa !47
  %153 = load i32, ptr %13, align 4, !tbaa !48
  %154 = load ptr, ptr %16, align 8, !tbaa !47
  %155 = sext i32 %153 to i64
  %156 = getelementptr inbounds i8, ptr %154, i64 %155
  store ptr %156, ptr %16, align 8, !tbaa !47
  br label %157

157:                                              ; preds = %148
  %158 = load i32, ptr %18, align 4, !tbaa !48
  %159 = add nsw i32 %158, 1
  store i32 %159, ptr %18, align 4, !tbaa !48
  br label %41, !llvm.loop !65

160:                                              ; preds = %41
  call void @llvm.lifetime.end.p0(i64 4, ptr %21) #6
  call void @llvm.lifetime.end.p0(i64 4, ptr %20) #6
  call void @llvm.lifetime.end.p0(i64 4, ptr %19) #6
  call void @llvm.lifetime.end.p0(i64 4, ptr %18) #6
  call void @llvm.lifetime.end.p0(i64 4, ptr %17) #6
  call void @llvm.lifetime.end.p0(i64 8, ptr %16) #6
  call void @llvm.lifetime.end.p0(i64 8, ptr %15) #6
  ret void
}