; Function Attrs: nounwind uwtable
define internal fastcc void @vble_restore_plane(ptr noundef readonly captures(none) %0, ptr noundef readonly captures(none) %1, ptr noundef nonnull captures(none) %2, i32 noundef range(i32 0, 3) %3, i32 noundef %4, i32 noundef %5, i32 noundef %6) unnamed_addr #1 {
  %8 = alloca i32, align 4
  %9 = alloca i32, align 4
  %10 = zext nneg i32 %3 to i64
  %11 = getelementptr inbounds nuw [8 x ptr], ptr %1, i64 0, i64 %10
  %12 = load ptr, ptr %11, align 8, !tbaa !51
  %13 = getelementptr inbounds nuw i8, ptr %0, i64 56
  %14 = load ptr, ptr %13, align 8, !tbaa !36
  %15 = getelementptr inbounds nuw i8, ptr %1, i64 64
  %16 = getelementptr inbounds nuw [8 x i32], ptr %15, i64 0, i64 %10
  %17 = load i32, ptr %16, align 4, !tbaa !50
  call void @llvm.lifetime.start.p0(i64 4, ptr nonnull %8) #5
  call void @llvm.lifetime.start.p0(i64 4, ptr nonnull %9) #5
  %18 = icmp sgt i32 %6, 0
  br i1 %18, label %.preheader.lr.ph, label %._crit_edge61

.preheader.lr.ph:                                 ; preds = %7
  %19 = sext i32 %4 to i64
  %20 = getelementptr inbounds i8, ptr %14, i64 %19
  %21 = icmp sgt i32 %5, 0
  %22 = getelementptr inbounds nuw i8, ptr %2, i64 16
  %23 = getelementptr inbounds nuw i8, ptr %2, i64 24
  %24 = sub nsw i32 0, %17
  %25 = sext i32 %24 to i64
  %26 = getelementptr inbounds nuw i8, ptr %0, i64 16
  %27 = sext i32 %17 to i64
  %28 = sub nsw i64 0, %27
  %29 = sext i32 %5 to i64
  %30 = icmp sgt i32 %5, 1
  br i1 %21, label %.preheader.us.preheader, label %.preheader

.preheader.us.preheader:                          ; preds = %.preheader.lr.ph
  %wide.trip.count = zext nneg i32 %5 to i64
  br label %.preheader.us

.preheader.us:                                    ; preds = %.preheader.us.preheader, %.loopexit.us
  %.059.us = phi ptr [ %39, %.loopexit.us ], [ %12, %.preheader.us.preheader ]
  %.04758.us = phi i32 [ %41, %.loopexit.us ], [ 0, %.preheader.us.preheader ]
  %.04856.us = phi ptr [ %40, %.loopexit.us ], [ %20, %.preheader.us.preheader ]
  br label %46

31:                                               ; preds = %._crit_edge.us
  store i32 0, ptr %8, align 4, !tbaa !50
  %32 = getelementptr inbounds i8, ptr %.059.us, i64 %25
  %33 = load i8, ptr %32, align 1, !tbaa !40
  %34 = zext i8 %33 to i32
  store i32 %34, ptr %9, align 4, !tbaa !50
  %35 = load ptr, ptr %26, align 8, !tbaa !52
  %36 = getelementptr inbounds i8, ptr %.059.us, i64 %28
  call void %35(ptr noundef %.059.us, ptr noundef %36, ptr noundef nonnull %.04856.us, i64 noundef %29, ptr noundef nonnull %8, ptr noundef nonnull %9) #5
  br label %.loopexit.us

37:                                               ; preds = %._crit_edge.us
  %38 = load i8, ptr %.04856.us, align 1, !tbaa !40
  store i8 %38, ptr %.059.us, align 1, !tbaa !40
  br i1 %30, label %.lr.ph55.us.preheader, label %.loopexit.us

.lr.ph55.us.preheader:                            ; preds = %37
  %load_initial = load i8, ptr %.059.us, align 1
  br label %.lr.ph55.us

.loopexit.us:                                     ; preds = %.lr.ph55.us, %37, %31
  %39 = getelementptr i8, ptr %.059.us, i64 %27
  %40 = getelementptr inbounds nuw i8, ptr %.04856.us, i64 %29
  %41 = add nuw nsw i32 %.04758.us, 1
  %exitcond79.not = icmp eq i32 %41, %6
  br i1 %exitcond79.not, label %._crit_edge61, label %.preheader.us, !llvm.loop !53

.lr.ph55.us:                                      ; preds = %.lr.ph55.us.preheader, %.lr.ph55.us
  %store_forwarded = phi i8 [ %load_initial, %.lr.ph55.us.preheader ], [ %45, %.lr.ph55.us ]
  %indvars.iv74 = phi i64 [ 1, %.lr.ph55.us.preheader ], [ %indvars.iv.next75, %.lr.ph55.us ]
  %42 = getelementptr inbounds nuw i8, ptr %.04856.us, i64 %indvars.iv74
  %43 = load i8, ptr %42, align 1, !tbaa !40
  %44 = getelementptr i8, ptr %.059.us, i64 %indvars.iv74
  %45 = add i8 %store_forwarded, %43
  store i8 %45, ptr %44, align 1, !tbaa !40
  %indvars.iv.next75 = add nuw nsw i64 %indvars.iv74, 1
  %exitcond78.not = icmp eq i64 %indvars.iv.next75, %wide.trip.count
  br i1 %exitcond78.not, label %.loopexit.us, label %.lr.ph55.us, !llvm.loop !54

46:                                               ; preds = %.preheader.us, %72
  %indvars.iv = phi i64 [ 0, %.preheader.us ], [ %indvars.iv.next, %72 ]
  %47 = getelementptr inbounds nuw i8, ptr %.04856.us, i64 %indvars.iv
  %48 = load i8, ptr %47, align 1, !tbaa !40
  %.not51.us = icmp eq i8 %48, 0
  br i1 %.not51.us, label %72, label %49

49:                                               ; preds = %46
  %50 = zext i8 %48 to i32
  %51 = load i32, ptr %22, align 8, !tbaa !46
  %52 = load i32, ptr %23, align 8, !tbaa !44
  %53 = load ptr, ptr %2, align 8, !tbaa !41
  %54 = lshr i32 %51, 3
  %55 = zext nneg i32 %54 to i64
  %56 = getelementptr inbounds nuw i8, ptr %53, i64 %55
  %57 = load i32, ptr %56, align 1, !tbaa !40
  %58 = and i32 %51, 7
  %59 = lshr i32 %57, %58
  %60 = sub nsw i32 32, %50
  %61 = lshr i32 -1, %60
  %62 = and i32 %59, %61
  %63 = add i32 %51, %50
  %64 = call i32 @llvm.umin.i32(i32 %52, i32 %63)
  store i32 %64, ptr %22, align 8, !tbaa !46
  %notmask = shl nsw i32 -1, %50
  %65 = xor i32 %notmask, -1
  %66 = add i32 %62, %65
  %67 = lshr i32 %66, 1
  %68 = and i32 %66, 1
  %69 = sub nsw i32 0, %68
  %70 = xor i32 %67, %69
  %71 = trunc i32 %70 to i8
  store i8 %71, ptr %47, align 1, !tbaa !40
  br label %72

72:                                               ; preds = %49, %46
  %indvars.iv.next = add nuw nsw i64 %indvars.iv, 1
  %exitcond73.not = icmp eq i64 %indvars.iv.next, %wide.trip.count
  br i1 %exitcond73.not, label %._crit_edge.us, label %46, !llvm.loop !55

._crit_edge.us:                                   ; preds = %72
  %.not.us = icmp eq i32 %.04758.us, 0
  br i1 %.not.us, label %37, label %31

.preheader:                                       ; preds = %.preheader.lr.ph, %80
  %.059 = phi ptr [ %81, %80 ], [ %12, %.preheader.lr.ph ]
  %.04758 = phi i32 [ %83, %80 ], [ 0, %.preheader.lr.ph ]
  %.04856 = phi ptr [ %82, %80 ], [ %20, %.preheader.lr.ph ]
  %.not = icmp eq i32 %.04758, 0
  br i1 %.not, label %.loopexit, label %73

73:                                               ; preds = %.preheader
  store i32 0, ptr %8, align 4, !tbaa !50
  %74 = getelementptr inbounds i8, ptr %.059, i64 %25
  %75 = load i8, ptr %74, align 1, !tbaa !40
  %76 = zext i8 %75 to i32
  store i32 %76, ptr %9, align 4, !tbaa !50
  %77 = load ptr, ptr %26, align 8, !tbaa !52
  %78 = getelementptr inbounds i8, ptr %.059, i64 %28
  call void %77(ptr noundef %.059, ptr noundef %78, ptr noundef %.04856, i64 noundef %29, ptr noundef nonnull %8, ptr noundef nonnull %9) #5
  br label %80

.loopexit:                                        ; preds = %.preheader
  %79 = load i8, ptr %.04856, align 1, !tbaa !40
  store i8 %79, ptr %.059, align 1, !tbaa !40
  br label %80

80:                                               ; preds = %.loopexit, %73
  %81 = getelementptr inbounds i8, ptr %.059, i64 %27
  %82 = getelementptr inbounds i8, ptr %.04856, i64 %29
  %83 = add nuw nsw i32 %.04758, 1
  %exitcond.not = icmp eq i32 %83, %6
  br i1 %exitcond.not, label %._crit_edge61, label %.preheader, !llvm.loop !53

._crit_edge61:                                    ; preds = %80, %.loopexit.us, %7
  call void @llvm.lifetime.end.p0(i64 4, ptr nonnull %9) #5
  call void @llvm.lifetime.end.p0(i64 4, ptr nonnull %8) #5
  ret void
}